target datalayout = "e-m:e-p270:32:32-p271:32:32-p272:64:64-i64:64-f80:128-n8:16:32:64-S128"
target triple = "x86_64-pc-linux-gnu"

%struct.student = type { [20 x i8], i32, i32, [2 x i8], [2 x i8], i32, %struct.student* }

@.str = private unnamed_addr constant [3 x i8] c"%d\00", align 1
@.str.1 = private unnamed_addr constant [3 x i8] c"%s\00", align 1
@.str.2 = private unnamed_addr constant [5 x i8] c"%d%d\00", align 1
@.str.3 = private unnamed_addr constant [10 x i8] c"%s\0A%d\0A%d\0A\00", align 1
@.str.4 = private unnamed_addr constant [2 x i8] c"Y\00", align 1

; Function Attrs: noinline nounwind uwtable
define dso_local void @main() #0 {
  %1 = alloca %struct.student*, align 8
  %2 = alloca %struct.student*, align 8
  %3 = alloca %struct.student*, align 8
  %4 = alloca %struct.student*, align 8
  %5 = alloca i32, align 4
  %6 = alloca i32, align 4
  %7 = alloca i32, align 4
  %8 = alloca i32, align 4
  %9 = call i32 (i8*, ...) @__isoc99_scanf(i8* getelementptr inbounds ([3 x i8], [3 x i8]* @.str, i64 0, i64 0), i32* %5)
  %10 = call noalias i8* @malloc(i64 48) #4
  %11 = bitcast i8* %10 to %struct.student*
  store %struct.student* %11, %struct.student** %2, align 8
  store %struct.student* %11, %struct.student** %1, align 8
  store %struct.student* %11, %struct.student** %3, align 8
  store %struct.student* %11, %struct.student** %4, align 8
  %12 = load %struct.student*, %struct.student** %1, align 8
  %13 = getelementptr inbounds %struct.student, %struct.student* %12, i32 0, i32 0
  %14 = getelementptr inbounds [20 x i8], [20 x i8]* %13, i64 0, i64 0
  %15 = call i32 (i8*, ...) @__isoc99_scanf(i8* getelementptr inbounds ([3 x i8], [3 x i8]* @.str.1, i64 0, i64 0), i8* %14)
  %16 = load %struct.student*, %struct.student** %1, align 8
  %17 = getelementptr inbounds %struct.student, %struct.student* %16, i32 0, i32 1
  %18 = load %struct.student*, %struct.student** %1, align 8
  %19 = getelementptr inbounds %struct.student, %struct.student* %18, i32 0, i32 2
  %20 = call i32 (i8*, ...) @__isoc99_scanf(i8* getelementptr inbounds ([5 x i8], [5 x i8]* @.str.2, i64 0, i64 0), i32* %17, i32* %19)
  %21 = load %struct.student*, %struct.student** %1, align 8
  %22 = getelementptr inbounds %struct.student, %struct.student* %21, i32 0, i32 3
  %23 = getelementptr inbounds [2 x i8], [2 x i8]* %22, i64 0, i64 0
  %24 = call i32 (i8*, ...) @__isoc99_scanf(i8* getelementptr inbounds ([3 x i8], [3 x i8]* @.str.1, i64 0, i64 0), i8* %23)
  %25 = load %struct.student*, %struct.student** %1, align 8
  %26 = getelementptr inbounds %struct.student, %struct.student* %25, i32 0, i32 4
  %27 = getelementptr inbounds [2 x i8], [2 x i8]* %26, i64 0, i64 0
  %28 = call i32 (i8*, ...) @__isoc99_scanf(i8* getelementptr inbounds ([3 x i8], [3 x i8]* @.str.1, i64 0, i64 0), i8* %27)
  %29 = load %struct.student*, %struct.student** %1, align 8
  %30 = getelementptr inbounds %struct.student, %struct.student* %29, i32 0, i32 5
  %31 = call i32 (i8*, ...) @__isoc99_scanf(i8* getelementptr inbounds ([3 x i8], [3 x i8]* @.str, i64 0, i64 0), i32* %30)
  %32 = load %struct.student*, %struct.student** %1, align 8
  %33 = getelementptr inbounds %struct.student, %struct.student* %32, i32 0, i32 1
  %34 = load i32, i32* %33, align 4
  %35 = load %struct.student*, %struct.student** %1, align 8
  %36 = getelementptr inbounds %struct.student, %struct.student* %35, i32 0, i32 2
  %37 = load i32, i32* %36, align 8
  %38 = load %struct.student*, %struct.student** %1, align 8
  %39 = getelementptr inbounds %struct.student, %struct.student* %38, i32 0, i32 3
  %40 = getelementptr inbounds [2 x i8], [2 x i8]* %39, i64 0, i64 0
  %41 = load %struct.student*, %struct.student** %1, align 8
  %42 = getelementptr inbounds %struct.student, %struct.student* %41, i32 0, i32 4
  %43 = getelementptr inbounds [2 x i8], [2 x i8]* %42, i64 0, i64 0
  %44 = load %struct.student*, %struct.student** %1, align 8
  %45 = getelementptr inbounds %struct.student, %struct.student* %44, i32 0, i32 5
  %46 = load i32, i32* %45, align 8
  %47 = call i32 @sch(i32 %34, i32 %37, i8* %40, i8* %43, i32 %46)
  store i32 %47, i32* %8, align 4
  store i32 %47, i32* %7, align 4
  store i32 2, i32* %6, align 4
  br label %48

48:                                               ; preds = %134, %0
  %49 = load i32, i32* %6, align 4
  %50 = load i32, i32* %5, align 4
  %51 = icmp sle i32 %49, %50
  br i1 %51, label %52, label %137

52:                                               ; preds = %48
  %53 = call noalias i8* @malloc(i64 48) #4
  %54 = bitcast i8* %53 to %struct.student*
  store %struct.student* %54, %struct.student** %1, align 8
  %55 = load %struct.student*, %struct.student** %1, align 8
  %56 = getelementptr inbounds %struct.student, %struct.student* %55, i32 0, i32 0
  %57 = getelementptr inbounds [20 x i8], [20 x i8]* %56, i64 0, i64 0
  %58 = call i32 (i8*, ...) @__isoc99_scanf(i8* getelementptr inbounds ([3 x i8], [3 x i8]* @.str.1, i64 0, i64 0), i8* %57)
  %59 = load %struct.student*, %struct.student** %1, align 8
  %60 = getelementptr inbounds %struct.student, %struct.student* %59, i32 0, i32 1
  %61 = load %struct.student*, %struct.student** %1, align 8
  %62 = getelementptr inbounds %struct.student, %struct.student* %61, i32 0, i32 2
  %63 = call i32 (i8*, ...) @__isoc99_scanf(i8* getelementptr inbounds ([5 x i8], [5 x i8]* @.str.2, i64 0, i64 0), i32* %60, i32* %62)
  %64 = load %struct.student*, %struct.student** %1, align 8
  %65 = getelementptr inbounds %struct.student, %struct.student* %64, i32 0, i32 3
  %66 = getelementptr inbounds [2 x i8], [2 x i8]* %65, i64 0, i64 0
  %67 = call i32 (i8*, ...) @__isoc99_scanf(i8* getelementptr inbounds ([3 x i8], [3 x i8]* @.str.1, i64 0, i64 0), i8* %66)
  %68 = load %struct.student*, %struct.student** %1, align 8
  %69 = getelementptr inbounds %struct.student, %struct.student* %68, i32 0, i32 4
  %70 = getelementptr inbounds [2 x i8], [2 x i8]* %69, i64 0, i64 0
  %71 = call i32 (i8*, ...) @__isoc99_scanf(i8* getelementptr inbounds ([3 x i8], [3 x i8]* @.str.1, i64 0, i64 0), i8* %70)
  %72 = load %struct.student*, %struct.student** %1, align 8
  %73 = getelementptr inbounds %struct.student, %struct.student* %72, i32 0, i32 5
  %74 = call i32 (i8*, ...) @__isoc99_scanf(i8* getelementptr inbounds ([3 x i8], [3 x i8]* @.str, i64 0, i64 0), i32* %73)
  %75 = load i32, i32* %8, align 4
  %76 = load %struct.student*, %struct.student** %1, align 8
  %77 = getelementptr inbounds %struct.student, %struct.student* %76, i32 0, i32 1
  %78 = load i32, i32* %77, align 4
  %79 = load %struct.student*, %struct.student** %1, align 8
  %80 = getelementptr inbounds %struct.student, %struct.student* %79, i32 0, i32 2
  %81 = load i32, i32* %80, align 8
  %82 = load %struct.student*, %struct.student** %1, align 8
  %83 = getelementptr inbounds %struct.student, %struct.student* %82, i32 0, i32 3
  %84 = getelementptr inbounds [2 x i8], [2 x i8]* %83, i64 0, i64 0
  %85 = load %struct.student*, %struct.student** %1, align 8
  %86 = getelementptr inbounds %struct.student, %struct.student* %85, i32 0, i32 4
  %87 = getelementptr inbounds [2 x i8], [2 x i8]* %86, i64 0, i64 0
  %88 = load %struct.student*, %struct.student** %1, align 8
  %89 = getelementptr inbounds %struct.student, %struct.student* %88, i32 0, i32 5
  %90 = load i32, i32* %89, align 8
  %91 = call i32 @sch(i32 %78, i32 %81, i8* %84, i8* %87, i32 %90)
  %92 = add nsw i32 %75, %91
  store i32 %92, i32* %8, align 4
  %93 = load %struct.student*, %struct.student** %1, align 8
  %94 = getelementptr inbounds %struct.student, %struct.student* %93, i32 0, i32 1
  %95 = load i32, i32* %94, align 4
  %96 = load %struct.student*, %struct.student** %1, align 8
  %97 = getelementptr inbounds %struct.student, %struct.student* %96, i32 0, i32 2
  %98 = load i32, i32* %97, align 8
  %99 = load %struct.student*, %struct.student** %1, align 8
  %100 = getelementptr inbounds %struct.student, %struct.student* %99, i32 0, i32 3
  %101 = getelementptr inbounds [2 x i8], [2 x i8]* %100, i64 0, i64 0
  %102 = load %struct.student*, %struct.student** %1, align 8
  %103 = getelementptr inbounds %struct.student, %struct.student* %102, i32 0, i32 4
  %104 = getelementptr inbounds [2 x i8], [2 x i8]* %103, i64 0, i64 0
  %105 = load %struct.student*, %struct.student** %1, align 8
  %106 = getelementptr inbounds %struct.student, %struct.student* %105, i32 0, i32 5
  %107 = load i32, i32* %106, align 8
  %108 = call i32 @sch(i32 %95, i32 %98, i8* %101, i8* %104, i32 %107)
  %109 = load i32, i32* %7, align 4
  %110 = icmp sgt i32 %108, %109
  br i1 %110, label %111, label %129

111:                                              ; preds = %52
  %112 = load %struct.student*, %struct.student** %1, align 8
  %113 = getelementptr inbounds %struct.student, %struct.student* %112, i32 0, i32 1
  %114 = load i32, i32* %113, align 4
  %115 = load %struct.student*, %struct.student** %1, align 8
  %116 = getelementptr inbounds %struct.student, %struct.student* %115, i32 0, i32 2
  %117 = load i32, i32* %116, align 8
  %118 = load %struct.student*, %struct.student** %1, align 8
  %119 = getelementptr inbounds %struct.student, %struct.student* %118, i32 0, i32 3
  %120 = getelementptr inbounds [2 x i8], [2 x i8]* %119, i64 0, i64 0
  %121 = load %struct.student*, %struct.student** %1, align 8
  %122 = getelementptr inbounds %struct.student, %struct.student* %121, i32 0, i32 4
  %123 = getelementptr inbounds [2 x i8], [2 x i8]* %122, i64 0, i64 0
  %124 = load %struct.student*, %struct.student** %1, align 8
  %125 = getelementptr inbounds %struct.student, %struct.student* %124, i32 0, i32 5
  %126 = load i32, i32* %125, align 8
  %127 = call i32 @sch(i32 %114, i32 %117, i8* %120, i8* %123, i32 %126)
  store i32 %127, i32* %7, align 4
  %128 = load %struct.student*, %struct.student** %1, align 8
  store %struct.student* %128, %struct.student** %4, align 8
  br label %129

129:                                              ; preds = %111, %52
  %130 = load %struct.student*, %struct.student** %1, align 8
  %131 = load %struct.student*, %struct.student** %2, align 8
  %132 = getelementptr inbounds %struct.student, %struct.student* %131, i32 0, i32 6
  store %struct.student* %130, %struct.student** %132, align 8
  %133 = load %struct.student*, %struct.student** %1, align 8
  store %struct.student* %133, %struct.student** %2, align 8
  br label %134

134:                                              ; preds = %129
  %135 = load i32, i32* %6, align 4
  %136 = add nsw i32 %135, 1
  store i32 %136, i32* %6, align 4
  br label %48

137:                                              ; preds = %48
  %138 = load %struct.student*, %struct.student** %2, align 8
  %139 = getelementptr inbounds %struct.student, %struct.student* %138, i32 0, i32 6
  store %struct.student* null, %struct.student** %139, align 8
  %140 = load %struct.student*, %struct.student** %4, align 8
  %141 = getelementptr inbounds %struct.student, %struct.student* %140, i32 0, i32 0
  %142 = getelementptr inbounds [20 x i8], [20 x i8]* %141, i64 0, i64 0
  %143 = load i32, i32* %7, align 4
  %144 = load i32, i32* %8, align 4
  %145 = call i32 (i8*, ...) @printf(i8* getelementptr inbounds ([10 x i8], [10 x i8]* @.str.3, i64 0, i64 0), i8* %142, i32 %143, i32 %144)
  ret void
}

; Function Attrs: noinline nounwind uwtable
define dso_local i32 @sch(i32 %0, i32 %1, i8* %2, i8* %3, i32 %4) #0 {
  %6 = alloca i32, align 4
  %7 = alloca i32, align 4
  %8 = alloca i8*, align 8
  %9 = alloca i8*, align 8
  %10 = alloca i32, align 4
  %11 = alloca i32, align 4
  store i32 %0, i32* %6, align 4
  store i32 %1, i32* %7, align 4
  store i8* %2, i8** %8, align 8
  store i8* %3, i8** %9, align 8
  store i32 %4, i32* %10, align 4
  store i32 0, i32* %11, align 4
  %12 = load i32, i32* %6, align 4
  %13 = icmp sgt i32 %12, 80
  br i1 %13, label %14, label %20

14:                                               ; preds = %5
  %15 = load i32, i32* %10, align 4
  %16 = icmp sge i32 %15, 1
  br i1 %16, label %17, label %20

17:                                               ; preds = %14
  %18 = load i32, i32* %11, align 4
  %19 = add nsw i32 %18, 8000
  store i32 %19, i32* %11, align 4
  br label %20

20:                                               ; preds = %17, %14, %5
  %21 = load i32, i32* %6, align 4
  %22 = icmp sgt i32 %21, 85
  br i1 %22, label %23, label %29

23:                                               ; preds = %20
  %24 = load i32, i32* %7, align 4
  %25 = icmp sgt i32 %24, 80
  br i1 %25, label %26, label %29

26:                                               ; preds = %23
  %27 = load i32, i32* %11, align 4
  %28 = add nsw i32 %27, 4000
  store i32 %28, i32* %11, align 4
  br label %29

29:                                               ; preds = %26, %23, %20
  %30 = load i32, i32* %6, align 4
  %31 = icmp sgt i32 %30, 90
  br i1 %31, label %32, label %35

32:                                               ; preds = %29
  %33 = load i32, i32* %11, align 4
  %34 = add nsw i32 %33, 2000
  store i32 %34, i32* %11, align 4
  br label %35

35:                                               ; preds = %32, %29
  %36 = load i32, i32* %6, align 4
  %37 = icmp sgt i32 %36, 85
  br i1 %37, label %38, label %45

38:                                               ; preds = %35
  %39 = load i8*, i8** %9, align 8
  %40 = call i32 @strcmp(i8* %39, i8* getelementptr inbounds ([2 x i8], [2 x i8]* @.str.4, i64 0, i64 0)) #5
  %41 = icmp eq i32 %40, 0
  br i1 %41, label %42, label %45

42:                                               ; preds = %38
  %43 = load i32, i32* %11, align 4
  %44 = add nsw i32 %43, 1000
  store i32 %44, i32* %11, align 4
  br label %45

45:                                               ; preds = %42, %38, %35
  %46 = load i32, i32* %7, align 4
  %47 = icmp sgt i32 %46, 80
  br i1 %47, label %48, label %55

48:                                               ; preds = %45
  %49 = load i8*, i8** %8, align 8
  %50 = call i32 @strcmp(i8* %49, i8* getelementptr inbounds ([2 x i8], [2 x i8]* @.str.4, i64 0, i64 0)) #5
  %51 = icmp eq i32 %50, 0
  br i1 %51, label %52, label %55

52:                                               ; preds = %48
  %53 = load i32, i32* %11, align 4
  %54 = add nsw i32 %53, 850
  store i32 %54, i32* %11, align 4
  br label %55

55:                                               ; preds = %52, %48, %45
  %56 = load i32, i32* %11, align 4
  ret i32 %56
}